; Function Attrs: nounwind uwtable
define ptr @l_Lean_PersistentHashMap_find_x3f___at___private_Lean_Meta_FunInfo_0__Lean_Meta_checkFunInfoCache___spec__1(ptr noundef %0, ptr noundef %1) local_unnamed_addr #1 {
  %3 = getelementptr inbounds nuw i8, ptr %1, i64 8
  %4 = getelementptr inbounds nuw i8, ptr %1, i64 24
  %5 = load i64, ptr %4, align 8, !tbaa !12
  %6 = load ptr, ptr %3, align 8, !tbaa !9
  %7 = getelementptr inbounds nuw i8, ptr %1, i64 16
  %8 = load ptr, ptr %7, align 8, !tbaa !9
  %9 = tail call i64 @l_Lean_Expr_hash(ptr noundef %6) #5
  %10 = ptrtoint ptr %8 to i64
  %11 = and i64 %10, 1
  %.not.i = icmp eq i64 %11, 0
  br i1 %.not.i, label %15, label %12

12:                                               ; preds = %2
  %13 = lshr i64 %10, 1
  %14 = trunc i64 %13 to i32
  br label %lean_obj_tag.exit

15:                                               ; preds = %2
  %16 = getelementptr i8, ptr %8, i64 4
  %.val.i = load i32, ptr %16, align 4
  %17 = lshr i32 %.val.i, 24
  br label %lean_obj_tag.exit

lean_obj_tag.exit:                                ; preds = %12, %15
  %.0.i = phi i32 [ %14, %12 ], [ %17, %15 ]
  %18 = icmp eq i32 %.0.i, 0
  br i1 %18, label %30, label %19

19:                                               ; preds = %lean_obj_tag.exit
  %20 = getelementptr inbounds nuw i8, ptr %8, i64 8
  %21 = load ptr, ptr %20, align 8, !tbaa !9
  %22 = ptrtoint ptr %21 to i64
  %23 = and i64 %22, 1
  %.not.i27 = icmp eq i64 %23, 0
  br i1 %.not.i27, label %26, label %24

24:                                               ; preds = %19
  %25 = lshr i64 %22, 1
  br label %lean_uint64_of_nat.exit

26:                                               ; preds = %19
  %27 = tail call i64 @lean_uint64_of_big_nat(ptr noundef %21) #5
  br label %lean_uint64_of_nat.exit

lean_uint64_of_nat.exit:                          ; preds = %24, %26
  %28 = phi i64 [ %25, %24 ], [ %27, %26 ]
  %29 = tail call i64 @lean_uint64_mix_hash(i64 noundef %28, i64 noundef 13) #5
  br label %30

30:                                               ; preds = %lean_obj_tag.exit, %lean_uint64_of_nat.exit
  %.sink = phi i64 [ %29, %lean_uint64_of_nat.exit ], [ 11, %lean_obj_tag.exit ]
  %31 = tail call i64 @lean_uint64_mix_hash(i64 noundef %9, i64 noundef %.sink) #5
  %32 = tail call i64 @lean_uint64_mix_hash(i64 noundef %5, i64 noundef %31) #5
  %33 = tail call ptr @l_Lean_PersistentHashMap_findAux___at___private_Lean_Meta_FunInfo_0__Lean_Meta_checkFunInfoCache___spec__2(ptr noundef %0, i64 noundef %32, ptr noundef nonnull %1)
  ret ptr %33
}